(dp0
S'bWdj2GDclj5ofokWjzoa5jAwMkxCykd6'
p1
I22
sS'RXDvfPUBYFlVdlueBFbLW0mhhAyGEqpt'
p2
I28
sS'fbPkOYLVPtPgIt0MxizjfFJov3JbHyAi'
p3
I6
sS'A3fsA9Zfv1X2fVEQhTw51lKENdNrEqT3'
p4
I24
sS'5X6FeZozNMgE2VRi3MJYjkkFK8SETtu2'
p5
I3
sS'5Gyp41oLVo7Gg7vF4vpmggWP5MU70QO6'
p6
I8
sS'SpATywNh6bZuzm8s1ceuBUnMUAeoAHHw'
p7
I11
sS'3VkHkmOtom3jM2wCu94xgzzu1d6Dn7or'
p8
I37
sS'G8EPVSXsOYB5YQWZGiz1aVq5Pgr2GrQu'
p9
I25
sS'7GRhBDsirIGkRZBtSMEzNTyDr2JQm4xx'
p10
I1
sS'TAYxxh39I2LZnftBpL0LfF2NxzrCKpkx'
p11
I4
sS'DABrJ6O4AotFwuAbfo1fuMj40VmMpPGX'
p12
I36
sS'81UZtt1JJwBFYMj5u38WNKCSVA4IJSDv'
p13
I7
sS'ykoe1cCWK134BJmfbNoPEenJOIWdtQOZ'
p14
I20
sS'X78EhlW2JxwO1I6S3U4yZVwkEQpKXLOj'
p15
I23
sS'gvEwgd64UX4t3K7ftZwXiMkFuxFUAqQE'
p16
I26
sS'HbeAZjZFFQUe90oTP0RRO0PEtRAqU3kK'
p17
I14
sS'WM572q68zD5VW8pcvVTc1RhhFUq3iRFN'
p18
I29
sS'Wm3dddHSynJ76EJV6hyLYKGGRL0JF3YK'
p19
I32
sS'NmbZ3BmS8V4pMg6oxXHWpqqMZCE1jvYt'
p20
I16
sS'nSfGxfEtzw5G72fVbfaowxsV46Pg1xIc'
p21
I33
sS'Er0RFawC4sHagDmmQZcBGBrzamLQcblZ'
p22
I9
sS'AXUJZGmZ0xaYSWazu8RQ1G5c76ECT1Kd'
p23
I2
sS'9Mq1P5hrrLw6Bh9X4W4ZjisQJDdxjz9x'
p24
I27
sS'1pvLqtotBsKv7QSOsLicJDQMHx3lui6d'
p25
I31
sS'xMd9DzNyUCTLRPVbwWVzf4vq06oqrTT1'
p26
I13
sS'H2lDW05SyKnwntZ6Fora76aPAEswcMa5'
p27
I15
sS'9Bd26pfDLvkPINwLnpaGcf0LrLUvY1Mz'
p28
I18
sS'DPnLzkJJqOOPRJfBxIHbQEERiYHu5ila'
p29
I0
sS'q6A6QG7qMpyNcznyT2XaIxnfNGkZRxXl'
p30
I35
sS'3cnZpv6ReApmCaZyaQwi2izDZxVRdC01'
p31
I19
sS'a2E7NQC7nZB7WHEhKGhKnKvUWtsLAQzh'
p32
I17
sS'mTmmr5zd8l4wXhwiULwjSmSbi9ktcFmV'
p33
I10
sS'KHPw0gmg1Ad3V07TqRpyBzA8mRjj7mkt'
p34
I5
sS'shM3Yy9vxHn2aqjSYfQXOcwGo0hWh3MI'
p35
I12
sS'9zpXzW9zCfU8KGBWkhlsGH8B8czISH4J'
p36
I38
sS'I7Go4XwWgpjRJM8EZGEnBpkfSmBNOlsO'
p37
I30
sS'tXbz2ZYaRyb2ZsWUBPoYzAmisOhHQrYl'
p38
I34
sS'V4tXq15GxHo2gaMpaJLZ3IGEkP949IbE'
p39
I21
s.